target datalayout = "e-m:e-p270:32:32-p271:32:32-p272:64:64-i64:64-i128:128-f80:128-n8:16:32:64-S128"
target triple = "x86_64-pc-linux-gnu"

; Function Attrs: nounwind uwtable
define internal double @velvet_filter(double noundef %0, ptr noundef %1) #1 {
  %3 = alloca double, align 8
  %4 = alloca ptr, align 8
  %5 = alloca double, align 8
  store double %0, ptr %3, align 8, !tbaa !44
  store ptr %1, ptr %4, align 8, !tbaa !42
  call void @llvm.lifetime.start.p0(i64 8, ptr %5) #7
  %6 = load double, ptr %3, align 8, !tbaa !44
  %7 = call nsz double @llvm.fabs.f64(double %6)
  store double %7, ptr %5, align 8, !tbaa !44
  %8 = load double, ptr %3, align 8, !tbaa !44
  %9 = fcmp nsz ogt double %8, 0.000000e+00
  %10 = zext i1 %9 to i32
  %11 = load double, ptr %3, align 8, !tbaa !44
  %12 = fcmp nsz olt double %11, 0.000000e+00
  %13 = zext i1 %12 to i32
  %14 = sub nsw i32 %10, %13
  %15 = sitofp i32 %14 to double
  %16 = load ptr, ptr %4, align 8, !tbaa !42
  %17 = getelementptr inbounds double, ptr %16, i64 1
  %18 = load double, ptr %17, align 8, !tbaa !44
  %19 = fmul nsz double %15, %18
  %20 = load double, ptr %5, align 8, !tbaa !44
  %21 = load ptr, ptr %4, align 8, !tbaa !42
  %22 = getelementptr inbounds double, ptr %21, i64 0
  %23 = load double, ptr %22, align 8, !tbaa !44
  %24 = fcmp nsz olt double %20, %23
  %25 = zext i1 %24 to i32
  %26 = sitofp i32 %25 to double
  %27 = fmul nsz double %19, %26
  call void @llvm.lifetime.end.p0(i64 8, ptr %5) #7
  ret double %27
}