; Function Attrs: mustprogress nofree norecurse nosync nounwind willreturn memory(argmem: read) uwtable
define internal double @velvet_filter(double noundef %0, ptr noundef readonly captures(none) %1) #7 {
  %3 = tail call nsz double @llvm.fabs.f64(double %0)
  %4 = fcmp nsz ogt double %0, 0.000000e+00
  %5 = zext i1 %4 to i32
  %6 = fcmp nsz olt double %0, 0.000000e+00
  %.neg = sext i1 %6 to i32
  %7 = add nsw i32 %.neg, %5
  %8 = sitofp i32 %7 to double
  %9 = getelementptr inbounds nuw i8, ptr %1, i64 8
  %10 = load double, ptr %9, align 8, !tbaa !37
  %11 = fmul nsz double %10, %8
  %12 = load double, ptr %1, align 8, !tbaa !37
  %13 = fcmp nsz olt double %3, %12
  %14 = uitofp i1 %13 to double
  %15 = fmul nsz double %11, %14
  ret double %15
}